target datalayout = "e-m:e-p270:32:32-p271:32:32-p272:64:64-i64:64-i128:128-f80:128-n8:16:32:64-S128"
target triple = "x86_64-pc-linux-gnu"

%struct.KDF_X942 = type { ptr, %struct.PROV_DIGEST, ptr, i64, ptr, i64, ptr, ptr, ptr, ptr, i64, i64, i64, i64, i64, ptr, i64, i32 }
%struct.PROV_DIGEST = type { ptr, ptr, ptr }

@.str = private unnamed_addr constant [52 x i8] c"../openssl/providers/implementations/kdfs/x942kdf.c\00", align 1
@.str.17 = private unnamed_addr constant [5 x i8] c"size\00", align 1
@__func__.x942kdf_size = private unnamed_addr constant [13 x i8] c"x942kdf_size\00", align 1

; Function Attrs: nounwind uwtable
define internal i64 @x942kdf_size(ptr noundef %0) #0 {
  %2 = alloca i64, align 8
  %3 = alloca ptr, align 8
  %4 = alloca i32, align 4
  %5 = alloca ptr, align 8
  %6 = alloca i32, align 4
  store ptr %0, ptr %3, align 8, !tbaa !3
  call void @llvm.lifetime.start.p0(i64 4, ptr %4) #6
  call void @llvm.lifetime.start.p0(i64 8, ptr %5) #6
  %7 = load ptr, ptr %3, align 8, !tbaa !3
  %8 = getelementptr inbounds nuw %struct.KDF_X942, ptr %7, i32 0, i32 1
  %9 = call ptr @ossl_prov_digest_md(ptr noundef %8)
  store ptr %9, ptr %5, align 8, !tbaa !36
  %10 = load ptr, ptr %5, align 8, !tbaa !36
  %11 = icmp eq ptr %10, null
  br i1 %11, label %12, label %13

12:                                               ; preds = %1
  call void @ERR_new()
  call void @ERR_set_debug(ptr noundef @.str, i32 noundef 431, ptr noundef @__func__.x942kdf_size)
  call void (i32, i32, ptr, ...) @ERR_set_error(i32 noundef 57, i32 noundef 129, ptr noundef null)
  store i64 0, ptr %2, align 8
  store i32 1, ptr %6, align 4
  br label %24

13:                                               ; preds = %1
  %14 = load ptr, ptr %5, align 8, !tbaa !36
  %15 = call i32 @EVP_MD_get_size(ptr noundef %14)
  store i32 %15, ptr %4, align 4, !tbaa !35
  %16 = load i32, ptr %4, align 4, !tbaa !35
  %17 = icmp sle i32 %16, 0
  br i1 %17, label %18, label %19

18:                                               ; preds = %13
  br label %22

19:                                               ; preds = %13
  %20 = load i32, ptr %4, align 4, !tbaa !35
  %21 = sext i32 %20 to i64
  br label %22

22:                                               ; preds = %19, %18
  %23 = phi i64 [ 0, %18 ], [ %21, %19 ]
  store i64 %23, ptr %2, align 8
  store i32 1, ptr %6, align 4
  br label %24

24:                                               ; preds = %22, %12
  call void @llvm.lifetime.end.p0(i64 8, ptr %5) #6
  call void @llvm.lifetime.end.p0(i64 4, ptr %4) #6
  %25 = load i64, ptr %2, align 8
  ret i64 %25
}

; Function Attrs: nounwind uwtable
define internal i32 @x942kdf_get_ctx_params(ptr noundef %0, ptr noundef %1) #0 {
  %3 = alloca i32, align 4
  %4 = alloca ptr, align 8
  %5 = alloca ptr, align 8
  %6 = alloca ptr, align 8
  %7 = alloca ptr, align 8
  %8 = alloca i32, align 4
  store ptr %0, ptr %4, align 8, !tbaa !3
  store ptr %1, ptr %5, align 8, !tbaa !33
  call void @llvm.lifetime.start.p0(i64 8, ptr %6) #6
  %9 = load ptr, ptr %4, align 8, !tbaa !3
  store ptr %9, ptr %6, align 8, !tbaa !3
  call void @llvm.lifetime.start.p0(i64 8, ptr %7) #6
  %10 = load ptr, ptr %5, align 8, !tbaa !33
  %11 = call ptr @OSSL_PARAM_locate(ptr noundef %10, ptr noundef @.str.17)
  store ptr %11, ptr %7, align 8, !tbaa !33
  %12 = load ptr, ptr %7, align 8, !tbaa !33
  %13 = icmp ne ptr %12, null
  br i1 %13, label %14, label %21

14:                                               ; preds = %2
  %15 = load ptr, ptr %7, align 8, !tbaa !33
  %16 = load ptr, ptr %6, align 8, !tbaa !3
  %17 = call i64 @x942kdf_size(ptr noundef %16)
  %18 = call i32 @OSSL_PARAM_set_size_t(ptr noundef %15, i64 noundef %17)
  %19 = icmp ne i32 %18, 0
  br i1 %19, label %21, label %20

20:                                               ; preds = %14
  store i32 0, ptr %3, align 4
  store i32 1, ptr %8, align 4
  br label %22

21:                                               ; preds = %14, %2
  store i32 1, ptr %3, align 4
  store i32 1, ptr %8, align 4
  br label %22

22:                                               ; preds = %21, %20
  call void @llvm.lifetime.end.p0(i64 8, ptr %7) #6
  call void @llvm.lifetime.end.p0(i64 8, ptr %6) #6
  %23 = load i32, ptr %3, align 4
  ret i32 %23
}