; Function Attrs: nounwind uwtable
define internal range(i32 0, 2) i32 @x942kdf_get_ctx_params(ptr noundef %0, ptr noundef %1) #0 {
  %3 = tail call ptr @OSSL_PARAM_locate(ptr noundef %1, ptr noundef nonnull @.str.17) #7
  %.not = icmp eq ptr %3, null
  br i1 %.not, label %13, label %4

4:                                                ; preds = %2
  %5 = getelementptr inbounds nuw i8, ptr %0, i64 8
  %6 = tail call ptr @ossl_prov_digest_md(ptr noundef nonnull %5) #7
  %7 = icmp eq ptr %6, null
  br i1 %7, label %8, label %9

8:                                                ; preds = %4
  tail call void @ERR_new() #7
  tail call void @ERR_set_debug(ptr noundef nonnull @.str, i32 noundef 431, ptr noundef nonnull @__func__.x942kdf_size) #7
  tail call void (i32, i32, ptr, ...) @ERR_set_error(i32 noundef 57, i32 noundef 129, ptr noundef null) #7
  br label %x942kdf_size.exit

9:                                                ; preds = %4
  %10 = tail call i32 @EVP_MD_get_size(ptr noundef nonnull %6) #7
  %narrow.i = tail call i32 @llvm.smax.i32(i32 %10, i32 0)
  %11 = zext nneg i32 %narrow.i to i64
  br label %x942kdf_size.exit

x942kdf_size.exit:                                ; preds = %8, %9
  %.0.i = phi i64 [ 0, %8 ], [ %11, %9 ]
  %12 = tail call i32 @OSSL_PARAM_set_size_t(ptr noundef nonnull %3, i64 noundef %.0.i) #7
  %.not6 = icmp eq i32 %12, 0
  br i1 %.not6, label %14, label %13

13:                                               ; preds = %x942kdf_size.exit, %2
  br label %14

14:                                               ; preds = %x942kdf_size.exit, %13
  %.0 = phi i32 [ 1, %13 ], [ 0, %x942kdf_size.exit ]
  ret i32 %.0
}